; ModuleID = '36/509.c'
source_filename = "36/509.c"
target datalayout = "e-m:e-p270:32:32-p271:32:32-p272:64:64-i64:64-f80:128-n8:16:32:64-S128"
target triple = "x86_64-pc-linux-gnu"

@.str = private unnamed_addr constant [5 x i8] c"%s%s\00", align 1
@.str.1 = private unnamed_addr constant [3 x i8] c"NO\00", align 1
@.str.2 = private unnamed_addr constant [4 x i8] c"YES\00", align 1

; Function Attrs: noinline nounwind uwtable
define dso_local i32 @main() #0 {
  %1 = alloca i32, align 4
  %2 = alloca i32, align 4
  %3 = alloca i32, align 4
  %4 = alloca [50 x i8], align 16
  %5 = alloca [2 x [50 x i8]], align 16
  store i32 0, i32* %1, align 4
  %6 = bitcast [2 x [50 x i8]]* %5 to i8*
  call void @llvm.memset.p0i8.i64(i8* align 16 %6, i8 0, i64 100, i1 false)
  %7 = getelementptr inbounds [50 x i8], [50 x i8]* %4, i64 0, i64 0
  %8 = getelementptr inbounds [2 x [50 x i8]], [2 x [50 x i8]]* %5, i64 0, i64 0
  %9 = getelementptr inbounds [50 x i8], [50 x i8]* %8, i64 0, i64 0
  %10 = call i32 (i8*, ...) @__isoc99_scanf(i8* getelementptr inbounds ([5 x i8], [5 x i8]* @.str, i64 0, i64 0), i8* %7, i8* %9)
  %11 = getelementptr inbounds [50 x i8], [50 x i8]* %4, i64 0, i64 0
  %12 = call i64 @strlen(i8* %11) #4
  %13 = trunc i64 %12 to i32
  store i32 %13, i32* %2, align 4
  %14 = load i32, i32* %2, align 4
  %15 = sext i32 %14 to i64
  %16 = getelementptr inbounds [2 x [50 x i8]], [2 x [50 x i8]]* %5, i64 0, i64 0
  %17 = getelementptr inbounds [50 x i8], [50 x i8]* %16, i64 0, i64 0
  %18 = call i64 @strlen(i8* %17) #4
  %19 = icmp ne i64 %15, %18
  br i1 %19, label %20, label %22

20:                                               ; preds = %0
  %21 = call i32 (i8*, ...) @printf(i8* getelementptr inbounds ([3 x i8], [3 x i8]* @.str.1, i64 0, i64 0))
  br label %51

22:                                               ; preds = %0
  store i32 0, i32* %3, align 4
  br label %23

23:                                               ; preds = %39, %22
  %24 = load i32, i32* %3, align 4
  %25 = load i32, i32* %2, align 4
  %26 = sub nsw i32 %25, 1
  %27 = icmp sle i32 %24, %26
  br i1 %27, label %28, label %42

28:                                               ; preds = %23
  %29 = load i32, i32* %3, align 4
  %30 = sext i32 %29 to i64
  %31 = getelementptr inbounds [50 x i8], [50 x i8]* %4, i64 0, i64 %30
  %32 = load i8, i8* %31, align 1
  %33 = getelementptr inbounds [2 x [50 x i8]], [2 x [50 x i8]]* %5, i64 0, i64 0
  %34 = load i32, i32* %2, align 4
  %35 = call i32 @max(i8 signext %32, [50 x i8]* %33, i32 %34)
  %36 = icmp eq i32 %35, 0
  br i1 %36, label %37, label %38

37:                                               ; preds = %28
  br label %42

38:                                               ; preds = %28
  br label %39

39:                                               ; preds = %38
  %40 = load i32, i32* %3, align 4
  %41 = add nsw i32 %40, 1
  store i32 %41, i32* %3, align 4
  br label %23

42:                                               ; preds = %37, %23
  %43 = load i32, i32* %3, align 4
  %44 = load i32, i32* %2, align 4
  %45 = icmp eq i32 %43, %44
  br i1 %45, label %46, label %48

46:                                               ; preds = %42
  %47 = call i32 (i8*, ...) @printf(i8* getelementptr inbounds ([4 x i8], [4 x i8]* @.str.2, i64 0, i64 0))
  br label %50

48:                                               ; preds = %42
  %49 = call i32 (i8*, ...) @printf(i8* getelementptr inbounds ([3 x i8], [3 x i8]* @.str.1, i64 0, i64 0))
  br label %50

50:                                               ; preds = %48, %46
  br label %51

51:                                               ; preds = %50, %20
  ret i32 0
}

; Function Attrs: argmemonly nounwind willreturn
declare void @llvm.memset.p0i8.i64(i8* nocapture writeonly, i8, i64, i1 immarg) #1

declare dso_local i32 @__isoc99_scanf(i8*, ...) #2

; Function Attrs: nounwind readonly
declare dso_local i64 @strlen(i8*) #3

declare dso_local i32 @printf(i8*, ...) #2

; Function Attrs: noinline nounwind uwtable
define dso_local i32 @max(i8 signext %0, [50 x i8]* %1, i32 %2) #0 {
  %4 = alloca i32, align 4
  %5 = alloca i8, align 1
  %6 = alloca [50 x i8]*, align 8
  %7 = alloca i32, align 4
  %8 = alloca i32, align 4
  store i8 %0, i8* %5, align 1
  store [50 x i8]* %1, [50 x i8]** %6, align 8
  store i32 %2, i32* %7, align 4
  store i32 0, i32* %8, align 4
  br label %9

9:                                                ; preds = %41, %3
  %10 = load i32, i32* %8, align 4
  %11 = load i32, i32* %7, align 4
  %12 = sub nsw i32 %11, 1
  %13 = icmp sle i32 %10, %12
  br i1 %13, label %14, label %44

14:                                               ; preds = %9
  %15 = load i8, i8* %5, align 1
  %16 = sext i8 %15 to i32
  %17 = load [50 x i8]*, [50 x i8]** %6, align 8
  %18 = getelementptr inbounds [50 x i8], [50 x i8]* %17, i64 0
  %19 = load i32, i32* %8, align 4
  %20 = sext i32 %19 to i64
  %21 = getelementptr inbounds [50 x i8], [50 x i8]* %18, i64 0, i64 %20
  %22 = load i8, i8* %21, align 1
  %23 = sext i8 %22 to i32
  %24 = icmp eq i32 %16, %23
  br i1 %24, label %25, label %40

25:                                               ; preds = %14
  %26 = load [50 x i8]*, [50 x i8]** %6, align 8
  %27 = getelementptr inbounds [50 x i8], [50 x i8]* %26, i64 1
  %28 = load i32, i32* %8, align 4
  %29 = sext i32 %28 to i64
  %30 = getelementptr inbounds [50 x i8], [50 x i8]* %27, i64 0, i64 %29
  %31 = load i8, i8* %30, align 1
  %32 = sext i8 %31 to i32
  %33 = icmp eq i32 %32, 0
  br i1 %33, label %34, label %40

34:                                               ; preds = %25
  %35 = load [50 x i8]*, [50 x i8]** %6, align 8
  %36 = getelementptr inbounds [50 x i8], [50 x i8]* %35, i64 1
  %37 = load i32, i32* %8, align 4
  %38 = sext i32 %37 to i64
  %39 = getelementptr inbounds [50 x i8], [50 x i8]* %36, i64 0, i64 %38
  store i8 1, i8* %39, align 1
  store i32 1, i32* %4, align 4
  br label %45

40:                                               ; preds = %25, %14
  br label %41

41:                                               ; preds = %40
  %42 = load i32, i32* %8, align 4
  %43 = add nsw i32 %42, 1
  store i32 %43, i32* %8, align 4
  br label %9

44:                                               ; preds = %9
  store i32 0, i32* %4, align 4
  br label %45

45:                                               ; preds = %44, %34
  %46 = load i32, i32* %4, align 4
  ret i32 %46
}


!llvm.module.flags = !{!0}
!llvm.ident = !{!1}

!0 = !{i32 1, !"wchar_size", i32 4}
!1 = !{!"clang version 10.0.0-4ubuntu1 "}
