; ModuleID = 'source-C-CXX/35/509.c'
source_filename = "source-C-CXX/35/509.c"
target datalayout = "e-m:e-p270:32:32-p271:32:32-p272:64:64-i64:64-f80:128-n8:16:32:64-S128"
target triple = "x86_64-pc-linux-gnu"

@.str = private unnamed_addr constant [5 x i8] c"%s%s\00", align 1
@.str.1 = private unnamed_addr constant [3 x i8] c"NO\00", align 1
@.str.2 = private unnamed_addr constant [4 x i8] c"YES\00", align 1

; Function Attrs: nofree nounwind sspstrong uwtable
define dso_local i32 @main() local_unnamed_addr #0 {
  %1 = alloca [50 x i8], align 16
  %2 = alloca [2 x [50 x i8]], align 16
  %3 = getelementptr inbounds [50 x i8], [50 x i8]* %1, i64 0, i64 0
  call void @llvm.lifetime.start.p0i8(i64 50, i8* nonnull %3) #6
  %4 = getelementptr inbounds [2 x [50 x i8]], [2 x [50 x i8]]* %2, i64 0, i64 0, i64 0
  call void @llvm.lifetime.start.p0i8(i64 100, i8* nonnull %4) #6
  call void @llvm.memset.p0i8.i64(i8* noundef nonnull align 16 dereferenceable(100) %4, i8 0, i64 100, i1 false)
  %5 = call i32 (i8*, ...) @__isoc99_scanf(i8* getelementptr inbounds ([5 x i8], [5 x i8]* @.str, i64 0, i64 0), i8* nonnull %3, i8* nonnull %4)
  %6 = call i64 @strlen(i8* noundef nonnull %3) #7
  %7 = trunc i64 %6 to i32
  %8 = shl i64 %6, 32
  %9 = ashr exact i64 %8, 32
  %10 = call i64 @strlen(i8* noundef nonnull %4) #7
  %11 = icmp eq i64 %9, %10
  br i1 %11, label %12, label %46

12:                                               ; preds = %0
  %13 = and i64 %6, 4294967295
  %14 = icmp sgt i32 %7, 0
  br i1 %14, label %15, label %42

15:                                               ; preds = %12
  %16 = and i64 %6, 4294967295
  br label %17

17:                                               ; preds = %15, %33
  %18 = phi i64 [ 0, %15 ], [ %36, %33 ]
  %19 = getelementptr inbounds [50 x i8], [50 x i8]* %1, i64 0, i64 %18
  %20 = load i8, i8* %19, align 1, !tbaa !5
  br label %21

21:                                               ; preds = %30, %17
  %22 = phi i64 [ 0, %17 ], [ %31, %30 ]
  %23 = getelementptr inbounds [2 x [50 x i8]], [2 x [50 x i8]]* %2, i64 0, i64 0, i64 %22
  %24 = load i8, i8* %23, align 1, !tbaa !5
  %25 = icmp eq i8 %24, %20
  br i1 %25, label %26, label %30

26:                                               ; preds = %21
  %27 = getelementptr inbounds [2 x [50 x i8]], [2 x [50 x i8]]* %2, i64 0, i64 1, i64 %22
  %28 = load i8, i8* %27, align 1, !tbaa !5
  %29 = icmp eq i8 %28, 0
  br i1 %29, label %33, label %30

30:                                               ; preds = %26, %21
  %31 = add nuw nsw i64 %22, 1
  %32 = icmp eq i64 %31, %13
  br i1 %32, label %38, label %21, !llvm.loop !8

33:                                               ; preds = %26
  %34 = and i64 %22, 4294967295
  %35 = getelementptr inbounds [2 x [50 x i8]], [2 x [50 x i8]]* %2, i64 0, i64 1, i64 %34
  store i8 1, i8* %35, align 1, !tbaa !5
  %36 = add nuw nsw i64 %18, 1
  %37 = icmp eq i64 %36, %16
  br i1 %37, label %40, label %17, !llvm.loop !10

38:                                               ; preds = %30
  %39 = trunc i64 %18 to i32
  br label %42

40:                                               ; preds = %33
  %41 = trunc i64 %6 to i32
  br label %42

42:                                               ; preds = %40, %38, %12
  %43 = phi i32 [ 0, %12 ], [ %39, %38 ], [ %41, %40 ]
  %44 = icmp eq i32 %43, %7
  %45 = select i1 %44, i8* getelementptr inbounds ([4 x i8], [4 x i8]* @.str.2, i64 0, i64 0), i8* getelementptr inbounds ([3 x i8], [3 x i8]* @.str.1, i64 0, i64 0)
  br label %46

46:                                               ; preds = %42, %0
  %47 = phi i8* [ getelementptr inbounds ([3 x i8], [3 x i8]* @.str.1, i64 0, i64 0), %0 ], [ %45, %42 ]
  %48 = call i32 (i8*, ...) @printf(i8* nonnull dereferenceable(1) %47)
  call void @llvm.lifetime.end.p0i8(i64 100, i8* nonnull %4) #6
  call void @llvm.lifetime.end.p0i8(i64 50, i8* nonnull %3) #6
  ret i32 0
}

; Function Attrs: argmemonly mustprogress nofree nosync nounwind willreturn
declare void @llvm.lifetime.start.p0i8(i64 immarg, i8* nocapture) #1

; Function Attrs: argmemonly mustprogress nofree nounwind willreturn writeonly
declare void @llvm.memset.p0i8.i64(i8* nocapture writeonly, i8, i64, i1 immarg) #2

; Function Attrs: nofree nounwind
declare noundef i32 @__isoc99_scanf(i8* nocapture noundef readonly, ...) local_unnamed_addr #3

; Function Attrs: argmemonly mustprogress nofree nounwind readonly willreturn
declare i64 @strlen(i8* nocapture) local_unnamed_addr #4

; Function Attrs: nofree nounwind
declare noundef i32 @printf(i8* nocapture noundef readonly, ...) local_unnamed_addr #3

; Function Attrs: nofree norecurse nosync nounwind sspstrong uwtable
define dso_local i32 @max(i8 signext %0, [50 x i8]* nocapture %1, i32 %2) local_unnamed_addr #5 {
  %4 = icmp sgt i32 %2, 0
  br i1 %4, label %5, label %22

5:                                                ; preds = %3
  %6 = zext i32 %2 to i64
  br label %7

7:                                                ; preds = %5, %19
  %8 = phi i64 [ 0, %5 ], [ %20, %19 ]
  %9 = getelementptr inbounds [50 x i8], [50 x i8]* %1, i64 0, i64 %8
  %10 = load i8, i8* %9, align 1, !tbaa !5
  %11 = icmp eq i8 %10, %0
  br i1 %11, label %12, label %19

12:                                               ; preds = %7
  %13 = getelementptr inbounds [50 x i8], [50 x i8]* %1, i64 1, i64 %8
  %14 = load i8, i8* %13, align 1, !tbaa !5
  %15 = icmp eq i8 %14, 0
  br i1 %15, label %16, label %19

16:                                               ; preds = %12
  %17 = and i64 %8, 4294967295
  %18 = getelementptr inbounds [50 x i8], [50 x i8]* %1, i64 1, i64 %17
  store i8 1, i8* %18, align 1, !tbaa !5
  br label %22

19:                                               ; preds = %7, %12
  %20 = add nuw nsw i64 %8, 1
  %21 = icmp eq i64 %20, %6
  br i1 %21, label %22, label %7, !llvm.loop !8

22:                                               ; preds = %19, %3, %16
  %23 = phi i32 [ 1, %16 ], [ 0, %3 ], [ 0, %19 ]
  ret i32 %23
}

; Function Attrs: argmemonly mustprogress nofree nosync nounwind willreturn
declare void @llvm.lifetime.end.p0i8(i64 immarg, i8* nocapture) #1


!llvm.module.flags = !{!0, !1, !2, !3}
!llvm.ident = !{!4}

!0 = !{i32 1, !"wchar_size", i32 4}
!1 = !{i32 7, !"PIC Level", i32 2}
!2 = !{i32 7, !"PIE Level", i32 2}
!3 = !{i32 7, !"uwtable", i32 1}
!4 = !{!"clang version 13.0.0"}
!5 = !{!6, !6, i64 0}
!6 = !{!"omnipotent char", !7, i64 0}
!7 = !{!"Simple C/C++ TBAA"}
!8 = distinct !{!8, !9}
!9 = !{!"llvm.loop.mustprogress"}
!10 = distinct !{!10, !9}
